target datalayout = "e-m:e-p270:32:32-p271:32:32-p272:64:64-i64:64-i128:128-f80:128-n8:16:32:64-S128"
target triple = "x86_64-unknown-linux-gnu"

%"struct.std::nothrow_t" = type { i8 }
%"class.zmq::io_object_t" = type { %"struct.zmq::i_poll_events", ptr }
%"struct.zmq::i_poll_events" = type { ptr }
%"struct.zmq::i_engine" = type { ptr }
%"struct.zmq::options_t" = type { i32, i32, i64, i8, [256 x i8], i32, i32, i32, i32, i32, i32, i32, i32, i8, %"struct.zmq::atomic_value_t", i32, i32, i32, i32, i32, i32, i64, i32, i32, i8, i32, i8, i8, i8, i8, i8, %"class.std::__cxx11::basic_string", %"class.std::__cxx11::basic_string", %"class.std::__cxx11::basic_string", i32, i32, i32, i32, %"class.std::vector", %"class.std::set", %"class.std::set", %"class.std::set.6", i32, i32, %"class.std::__cxx11::basic_string", %"class.std::__cxx11::basic_string", %"class.std::__cxx11::basic_string", [32 x i8], [32 x i8], [32 x i8], %"class.std::__cxx11::basic_string", %"class.std::__cxx11::basic_string", i32, i32, i8, i32, i8, i32, i8, i16, i32, i32, i32, %"class.std::__cxx11::basic_string", i8, i8, i8, i32, i32, i8, i32, %"class.std::map", i32, %"class.std::__cxx11::basic_string", %"class.std::__cxx11::basic_string", %"class.std::__cxx11::basic_string", %"class.std::__cxx11::basic_string", i8, %"class.std::vector.21", i8, %"class.std::vector.21", i8, %"class.std::vector.21", i8, i32, i8, i32, i32, i32, i32, i32, i8, i32 }
%"struct.zmq::atomic_value_t" = type { %"struct.std::atomic" }
%"struct.std::atomic" = type { %"struct.std::__atomic_base" }
%"struct.std::__atomic_base" = type { i32 }
%"class.std::vector" = type { %"struct.std::_Vector_base" }
%"struct.std::_Vector_base" = type { %"struct.std::_Vector_base<zmq::tcp_address_mask_t, std::allocator<zmq::tcp_address_mask_t>>::_Vector_impl" }
%"struct.std::_Vector_base<zmq::tcp_address_mask_t, std::allocator<zmq::tcp_address_mask_t>>::_Vector_impl" = type { %"struct.std::_Vector_base<zmq::tcp_address_mask_t, std::allocator<zmq::tcp_address_mask_t>>::_Vector_impl_data" }
%"struct.std::_Vector_base<zmq::tcp_address_mask_t, std::allocator<zmq::tcp_address_mask_t>>::_Vector_impl_data" = type { ptr, ptr, ptr }
%"class.std::set" = type { %"class.std::_Rb_tree" }
%"class.std::_Rb_tree" = type { %"struct.std::_Rb_tree<unsigned int, unsigned int, std::_Identity<unsigned int>, std::less<unsigned int>>::_Rb_tree_impl" }
%"struct.std::_Rb_tree<unsigned int, unsigned int, std::_Identity<unsigned int>, std::less<unsigned int>>::_Rb_tree_impl" = type { %"struct.std::_Rb_tree_key_compare", %"struct.std::_Rb_tree_header" }
%"struct.std::_Rb_tree_key_compare" = type { %"struct.std::less" }
%"struct.std::less" = type { i8 }
%"struct.std::_Rb_tree_header" = type { %"struct.std::_Rb_tree_node_base", i64 }
%"struct.std::_Rb_tree_node_base" = type { i32, ptr, ptr, ptr }
%"class.std::set.6" = type { %"class.std::_Rb_tree.7" }
%"class.std::_Rb_tree.7" = type { %"struct.std::_Rb_tree<int, int, std::_Identity<int>, std::less<int>>::_Rb_tree_impl" }
%"struct.std::_Rb_tree<int, int, std::_Identity<int>, std::less<int>>::_Rb_tree_impl" = type { %"struct.std::_Rb_tree_key_compare.11", %"struct.std::_Rb_tree_header" }
%"struct.std::_Rb_tree_key_compare.11" = type { %"struct.std::less.12" }
%"struct.std::less.12" = type { i8 }
%"class.std::map" = type { %"class.std::_Rb_tree.14" }
%"class.std::_Rb_tree.14" = type { %"struct.std::_Rb_tree<std::__cxx11::basic_string<char>, std::pair<const std::__cxx11::basic_string<char>, std::__cxx11::basic_string<char>>, std::_Select1st<std::pair<const std::__cxx11::basic_string<char>, std::__cxx11::basic_string<char>>>, std::less<std::__cxx11::basic_string<char>>>::_Rb_tree_impl" }
%"struct.std::_Rb_tree<std::__cxx11::basic_string<char>, std::pair<const std::__cxx11::basic_string<char>, std::__cxx11::basic_string<char>>, std::_Select1st<std::pair<const std::__cxx11::basic_string<char>, std::__cxx11::basic_string<char>>>, std::less<std::__cxx11::basic_string<char>>>::_Rb_tree_impl" = type { %"struct.std::_Rb_tree_key_compare.18", %"struct.std::_Rb_tree_header" }
%"struct.std::_Rb_tree_key_compare.18" = type { %"struct.std::less.19" }
%"struct.std::less.19" = type { i8 }
%"class.std::vector.21" = type { %"struct.std::_Vector_base.22" }
%"struct.std::_Vector_base.22" = type { %"struct.std::_Vector_base<unsigned char, std::allocator<unsigned char>>::_Vector_impl" }
%"struct.std::_Vector_base<unsigned char, std::allocator<unsigned char>>::_Vector_impl" = type { %"struct.std::_Vector_base<unsigned char, std::allocator<unsigned char>>::_Vector_impl_data" }
%"struct.std::_Vector_base<unsigned char, std::allocator<unsigned char>>::_Vector_impl_data" = type { ptr, ptr, ptr }
%"struct.zmq::endpoint_uri_pair_t" = type <{ %"class.std::__cxx11::basic_string", %"class.std::__cxx11::basic_string", i32, [4 x i8] }>
%"class.std::__cxx11::basic_string" = type { %"struct.std::__cxx11::basic_string<char>::_Alloc_hider", i64, %union.anon }
%"struct.std::__cxx11::basic_string<char>::_Alloc_hider" = type { ptr }
%union.anon = type { i64, [8 x i8] }
%"class.zmq::msg_t" = type { %union.anon.26 }
%union.anon.26 = type { %struct.anon }
%struct.anon = type { ptr, [34 x i8], i8, i8, i32, %"union.zmq::msg_t::group_t" }
%"union.zmq::msg_t::group_t" = type { %struct.anon.28 }
%struct.anon.28 = type { i8, ptr }
%"class.zmq::stream_engine_base_t" = type <{ %"class.zmq::io_object_t", %"struct.zmq::i_engine", %"struct.zmq::options_t", ptr, i64, ptr, ptr, i64, ptr, ptr, { i64, i64 }, { i64, i64 }, ptr, i8, i8, [6 x i8], %"struct.zmq::endpoint_uri_pair_t", i8, i8, i8, i8, [4 x i8], %"class.std::__cxx11::basic_string", i32, [4 x i8], ptr, i8, i8, [6 x i8], %"class.zmq::msg_t", i8, [7 x i8], ptr, ptr, i8, [7 x i8] }>

@stderr = external global ptr, align 8
@.str.1 = private unnamed_addr constant [111 x i8] c"generated/home/dtcxzyw/WorkSpace/Projects/compilers/llvm-opt-benchmark/bench/libzmq/libzmq/src/zmtp_engine.cpp\00", align 1
@_ZSt7nothrow = external global %"struct.std::nothrow_t", align 1
@.str.9 = private unnamed_addr constant [36 x i8] c"FATAL ERROR: OUT OF MEMORY (%s:%d)\0A\00", align 1
@.str.10 = private unnamed_addr constant [27 x i8] c"FATAL ERROR: OUT OF MEMORY\00", align 1

; Function Attrs: mustprogress nounwind uwtable
define linkonce_odr noundef ptr @_ZN3zmq20stream_engine_base_t7sessionEv(ptr noundef nonnull align 8 dereferenceable(1689) %this) #4 comdat align 2 {
entry:
  %this.addr = alloca ptr, align 8
  store ptr %this, ptr %this.addr, align 8
  %this1 = load ptr, ptr %this.addr, align 8
  %_session = getelementptr inbounds %"class.zmq::stream_engine_base_t", ptr %this1, i32 0, i32 32
  %0 = load ptr, ptr %_session, align 8
  ret ptr %0
}

; Function Attrs: mustprogress uwtable
define noundef zeroext i1 @_ZN3zmq13zmtp_engine_t14handshake_v1_0Ev(ptr noundef nonnull align 8 dereferenceable(1976) %this) #0 align 2 personality ptr @__gxx_personality_v0 {
entry:
  %retval = alloca i1, align 1
  %this.addr = alloca ptr, align 8
  %saved-rvalue = alloca ptr, align 8
  %cleanup.cond = alloca i1, align 1
  %exn.slot = alloca ptr, align 8
  %ehselector.slot = alloca i32, align 4
  %saved-rvalue13 = alloca ptr, align 8
  %cleanup.cond14 = alloca i1, align 1
  store ptr %this, ptr %this.addr, align 8
  %this1 = load ptr, ptr %this.addr, align 8
  %call = call noundef ptr @_ZN3zmq20stream_engine_base_t7sessionEv(ptr noundef nonnull align 8 dereferenceable(1689) %this1)
  %call2 = call noundef zeroext i1 @_ZNK3zmq14session_base_t11zap_enabledEv(ptr noundef nonnull align 8 dereferenceable(1624) %call)
  br i1 %call2, label %if.then, label %if.end

if.then:                                          ; preds = %entry
  call void @_ZN3zmq20stream_engine_base_t5errorENS_8i_engine14error_reason_tE(ptr noundef nonnull align 8 dereferenceable(1689) %this1, i32 noundef 0)
  store i1 false, ptr %retval, align 1
  br label %return

if.end:                                           ; preds = %entry
  %call3 = call noalias noundef ptr @_ZnwmRKSt9nothrow_t(i64 noundef 88, ptr noundef nonnull align 1 dereferenceable(1) @_ZSt7nothrow) #17
  %new.isnull = icmp eq ptr %call3, null
  store i1 false, ptr %cleanup.cond, align 1
  br i1 %new.isnull, label %new.cont, label %new.notnull

new.notnull:                                      ; preds = %if.end
  store ptr %call3, ptr %saved-rvalue, align 8
  store i1 true, ptr %cleanup.cond, align 1
  %_options = getelementptr inbounds %"class.zmq::stream_engine_base_t", ptr %this1, i32 0, i32 2
  %out_batch_size = getelementptr inbounds %"struct.zmq::options_t", ptr %_options, i32 0, i32 68
  %0 = load i32, ptr %out_batch_size, align 8
  %conv = sext i32 %0 to i64
  invoke void @_ZN3zmq12v1_encoder_tC1Em(ptr noundef nonnull align 8 dereferenceable(88) %call3, i64 noundef %conv)
          to label %invoke.cont unwind label %lpad

invoke.cont:                                      ; preds = %new.notnull
  br label %new.cont

new.cont:                                         ; preds = %invoke.cont, %if.end
  %1 = phi ptr [ %call3, %invoke.cont ], [ null, %if.end ]
  %_encoder = getelementptr inbounds %"class.zmq::stream_engine_base_t", ptr %this1, i32 0, i32 8
  store ptr %1, ptr %_encoder, align 8
  br label %do.body

do.body:                                          ; preds = %new.cont
  %_encoder4 = getelementptr inbounds %"class.zmq::stream_engine_base_t", ptr %this1, i32 0, i32 8
  %2 = load ptr, ptr %_encoder4, align 8
  %tobool = icmp ne ptr %2, null
  %lnot = xor i1 %tobool, true
  br i1 %lnot, label %if.then6, label %if.end9

if.then6:                                         ; preds = %do.body
  %3 = load ptr, ptr @stderr, align 8
  %call7 = call i32 (ptr, ptr, ...) @fprintf(ptr noundef %3, ptr noundef @.str.9, ptr noundef @.str.1, i32 noundef 291)
  %4 = load ptr, ptr @stderr, align 8
  %call8 = call i32 @fflush(ptr noundef %4)
  call void @_ZN3zmq9zmq_abortEPKc(ptr noundef @.str.10)
  br label %if.end9

lpad:                                             ; preds = %new.notnull
  %5 = landingpad { ptr, i32 }
          cleanup
  %6 = extractvalue { ptr, i32 } %5, 0
  store ptr %6, ptr %exn.slot, align 8
  %7 = extractvalue { ptr, i32 } %5, 1
  store i32 %7, ptr %ehselector.slot, align 4
  %cleanup.is_active = load i1, ptr %cleanup.cond, align 1
  br i1 %cleanup.is_active, label %cleanup.action, label %cleanup.done

cleanup.action:                                   ; preds = %lpad
  %8 = load ptr, ptr %saved-rvalue, align 8
  call void @_ZdlPvRKSt9nothrow_t(ptr noundef %8, ptr noundef nonnull align 1 dereferenceable(1) @_ZSt7nothrow) #16
  br label %cleanup.done

cleanup.done:                                     ; preds = %cleanup.action, %lpad
  br label %eh.resume

if.end9:                                          ; preds = %if.then6, %do.body
  br label %do.end

do.end:                                           ; preds = %if.end9
  %call10 = call noalias noundef ptr @_ZnwmRKSt9nothrow_t(i64 noundef 144, ptr noundef nonnull align 1 dereferenceable(1) @_ZSt7nothrow) #17
  %new.isnull11 = icmp eq ptr %call10, null
  store i1 false, ptr %cleanup.cond14, align 1
  br i1 %new.isnull11, label %new.cont23, label %new.notnull12

new.notnull12:                                    ; preds = %do.end
  store ptr %call10, ptr %saved-rvalue13, align 8
  store i1 true, ptr %cleanup.cond14, align 1
  %_options15 = getelementptr inbounds %"class.zmq::stream_engine_base_t", ptr %this1, i32 0, i32 2
  %in_batch_size = getelementptr inbounds %"struct.zmq::options_t", ptr %_options15, i32 0, i32 67
  %9 = load i32, ptr %in_batch_size, align 4
  %conv16 = sext i32 %9 to i64
  %_options17 = getelementptr inbounds %"class.zmq::stream_engine_base_t", ptr %this1, i32 0, i32 2
  %maxmsgsize = getelementptr inbounds %"struct.zmq::options_t", ptr %_options17, i32 0, i32 21
  %10 = load i64, ptr %maxmsgsize, align 8
  invoke void @_ZN3zmq12v1_decoder_tC1Eml(ptr noundef nonnull align 8 dereferenceable(144) %call10, i64 noundef %conv16, i64 noundef %10)
          to label %invoke.cont19 unwind label %lpad18

invoke.cont19:                                    ; preds = %new.notnull12
  br label %new.cont23

new.cont23:                                       ; preds = %invoke.cont19, %do.end
  %11 = phi ptr [ %call10, %invoke.cont19 ], [ null, %do.end ]
  %_decoder = getelementptr inbounds %"class.zmq::stream_engine_base_t", ptr %this1, i32 0, i32 5
  store ptr %11, ptr %_decoder, align 8
  br label %do.body24

do.body24:                                        ; preds = %new.cont23
  %_decoder25 = getelementptr inbounds %"class.zmq::stream_engine_base_t", ptr %this1, i32 0, i32 5
  %12 = load ptr, ptr %_decoder25, align 8
  %tobool26 = icmp ne ptr %12, null
  %lnot27 = xor i1 %tobool26, true
  br i1 %lnot27, label %if.then29, label %if.end32

if.then29:                                        ; preds = %do.body24
  %13 = load ptr, ptr @stderr, align 8
  %call30 = call i32 (ptr, ptr, ...) @fprintf(ptr noundef %13, ptr noundef @.str.9, ptr noundef @.str.1, i32 noundef 295)
  %14 = load ptr, ptr @stderr, align 8
  %call31 = call i32 @fflush(ptr noundef %14)
  call void @_ZN3zmq9zmq_abortEPKc(ptr noundef @.str.10)
  br label %if.end32

lpad18:                                           ; preds = %new.notnull12
  %15 = landingpad { ptr, i32 }
          cleanup
  %16 = extractvalue { ptr, i32 } %15, 0
  store ptr %16, ptr %exn.slot, align 8
  %17 = extractvalue { ptr, i32 } %15, 1
  store i32 %17, ptr %ehselector.slot, align 4
  %cleanup.is_active20 = load i1, ptr %cleanup.cond14, align 1
  br i1 %cleanup.is_active20, label %cleanup.action21, label %cleanup.done22

cleanup.action21:                                 ; preds = %lpad18
  %18 = load ptr, ptr %saved-rvalue13, align 8
  call void @_ZdlPvRKSt9nothrow_t(ptr noundef %18, ptr noundef nonnull align 1 dereferenceable(1) @_ZSt7nothrow) #16
  br label %cleanup.done22

cleanup.done22:                                   ; preds = %cleanup.action21, %lpad18
  br label %eh.resume

if.end32:                                         ; preds = %if.then29, %do.body24
  br label %do.end33

do.end33:                                         ; preds = %if.end32
  store i1 true, ptr %retval, align 1
  br label %return

return:                                           ; preds = %do.end33, %if.then
  %19 = load i1, ptr %retval, align 1
  ret i1 %19

eh.resume:                                        ; preds = %cleanup.done22, %cleanup.done
  %exn = load ptr, ptr %exn.slot, align 8
  %sel = load i32, ptr %ehselector.slot, align 4
  %lpad.val = insertvalue { ptr, i32 } poison, ptr %exn, 0
  %lpad.val34 = insertvalue { ptr, i32 } %lpad.val, i32 %sel, 1
  resume { ptr, i32 } %lpad.val34
}